(dp0
S'A'
p1
(dp2
g1
(dp3
g1
(dp4
g1
F0.8331420817530056
sS'C'
p5
F0.053051501573012666
sS'T'
p6
F0.08881410123588962
sS'G'
p7
F0.024992315438092213
ssg5
(dp8
g1
F0.7207069978389563
sg5
F0.09944762987700073
sg6
F0.11566702714576248
sg7
F0.0641783451382805
ssg6
(dp9
g1
F0.5708869262931425
sg5
F0.054404959663413764
sg6
F0.3191318616681547
sg7
F0.05557625237528904
ssg7
(dp10
g1
F0.901768779512126
sg5
F0.023809622215159164
sg6
F0.03988874692979734
sg7
F0.03453285134291754
sssg5
(dp11
g1
(dp12
g1
F0.15756984848421754
sg5
F0.7265918047848466
sg6
F0.0804358611959619
sg7
F0.035402485534973924
ssg5
(dp13
g1
F0.17808107641530427
sg5
F0.6158174315245215
sg6
F0.11760315695817183
sg7
F0.08849833510200236
ssg6
(dp14
g1
F0.12405749431914403
sg5
F0.4508000525211344
sg6
F0.3043034429806237
sg7
F0.12083901017909804
ssg7
(dp15
g1
F0.043311887867556714
sg5
F0.8381096970276579
sg6
F0.04037821386805261
sg7
F0.07820020123673288
sssg6
(dp16
g1
(dp17
g1
F0.06391123220752136
sg5
F0.015860137010556035
sg6
F0.9069333288145695
sg7
F0.01329530196735309
ssg5
(dp18
g1
F0.059851522402690205
sg5
F0.05780514088940809
sg6
F0.8443093694445718
sg7
F0.03803396726332986
ssg6
(dp19
g1
F0.10941692522644843
sg5
F0.02158493473724644
sg6
F0.8109362118504307
sg7
F0.05806192818587445
ssg7
(dp20
g1
F0.01298420019455248
sg5
F0.004439516880945549
sg6
F0.9510693547240485
sg7
F0.03150692820045347
sssg7
(dp21
g1
(dp22
g1
F0.1622874065451747
sg5
F0.12868443769564164
sg6
F0.19093445926126998
sg7
F0.5180936964979137
ssg5
(dp23
g1
F0.14721905953220138
sg5
F0.16672875041550508
sg6
F0.1946880466643199
sg7
F0.4913641433879737
ssg6
(dp24
g1
F0.15480299334388814
sg5
F0.08471822467542489
sg6
F0.5191666207885001
sg7
F0.24131216119218687
ssg7
(dp25
g1
F0.26842194859872054
sg5
F0.064351348654007
sg6
F0.11197815198327601
sg7
F0.5552485507639964
ssssg5
(dp26
g1
(dp27
g1
(dp28
g1
F0.8936313039941002
sg5
F0.047413886514775704
sg6
F0.04808546259537712
sg7
F0.010869346895746937
ssg5
(dp29
g1
F0.8598861743243527
sg5
F0.057837320663437906
sg6
F0.051911913624397815
sg7
F0.030364591387811703
ssg6
(dp30
g1
F0.7260483725052197
sg5
F0.060669896061813715
sg6
F0.1705692473359183
sg7
F0.04271248409704828
ssg7
(dp31
g1
F0.9373923610038747
sg5
F0.012037336005970662
sg6
F0.028221574468681423
sg7
F0.022348728521473234
sssg5
(dp32
g1
(dp33
g1
F0.10811429284543983
sg5
F0.818539205862948
sg6
F0.0527748438693997
sg7
F0.020571657422212418
ssg5
(dp34
g1
F0.13000077686300063
sg5
F0.6485612636243845
sg6
F0.11416675080154969
sg7
F0.10727120871106513
ssg6
(dp35
g1
F0.09174600458972544
sg5
F0.587757192823229
sg6
F0.2672480030086741
sg7
F0.053248799578371364
ssg7
(dp36
g1
F0.015631473741052934
sg5
F0.9195091675558004
sg6
F0.02842942077026744
sg7
F0.036429937932879373
sssg6
(dp37
g1
(dp38
g1
F0.06969013626383619
sg5
F0.021569156068645325
sg6
F0.8903208633922454
sg7
F0.018419844275273205
ssg5
(dp39
g1
F0.008529214928284977
sg5
F0.010304060099547208
sg6
F0.9697949808863731
sg7
F0.011371744085794666
ssg6
(dp40
g1
F0.045972391423629695
sg5
F0.022455820201155777
sg6
F0.8846589240591494
sg7
F0.04691286431606513
ssg7
(dp41
g1
F0.007487458521293382
sg5
F0.00393087107496513
sg6
F0.9818281405511289
sg7
F0.0067535298526126145
sssg7
(dp42
g1
(dp43
g1
F0.1887949435503808
sg5
F0.1915667755701964
sg6
F0.12528170927467
sg7
F0.4943565716047529
ssg5
(dp44
g1
F0.19017568542156207
sg5
F0.198920877926284
sg6
F0.10875490462427502
sg7
F0.5021485320278789
ssg6
(dp45
g1
F0.16515177016775373
sg5
F0.2132673616566269
sg6
F0.23291397714285483
sg7
F0.3886668910327646
ssg7
(dp46
g1
F0.06926638397353105
sg5
F0.15050987036907898
sg6
F0.13801987534989954
sg7
F0.6422038703074904
ssssg6
(dp47
g1
(dp48
g1
(dp49
g1
F0.6585879943071608
sg5
F0.10537736763934727
sg6
F0.1876882767097441
sg7
F0.04834636134374798
ssg5
(dp50
g1
F0.7310246219543273
sg5
F0.09870264474156742
sg6
F0.10953112270873115
sg7
F0.06074161059537424
ssg6
(dp51
g1
F0.5706322152426222
sg5
F0.07717338752950711
sg6
F0.26866035527204635
sg7
F0.08353404195582452
ssg7
(dp52
g1
F0.8087490676651975
sg5
F0.06434364441180007
sg6
F0.07731856622234369
sg7
F0.0495887217006587
sssg5
(dp53
g1
(dp54
g1
F0.25020535480026157
sg5
F0.45891331114418127
sg6
F0.2243438143552428
sg7
F0.06653751970031437
ssg5
(dp55
g1
F0.23235849817684376
sg5
F0.28590979293613256
sg6
F0.31138165092703624
sg7
F0.1703500579599874
ssg6
(dp56
g1
F0.21078588214945532
sg5
F0.21247400724117238
sg6
F0.4642422899946879
sg7
F0.11249782061468439
ssg7
(dp57
g1
F0.14000072416129233
sg5
F0.6689342373293429
sg6
F0.08158041024246582
sg7
F0.10948462826689902
sssg6
(dp58
g1
(dp59
g1
F0.17103962346660875
sg5
F0.06139344627258941
sg6
F0.7181651364300533
sg7
F0.04940179383074858
ssg5
(dp60
g1
F0.11043356995202151
sg5
F0.08283733783674034
sg6
F0.6969694201293478
sg7
F0.1097596720818904
ssg6
(dp61
g1
F0.11645631913916499
sg5
F0.050120063013921204
sg6
F0.7636626361179254
sg7
F0.06976098172898847
ssg7
(dp62
g1
F0.0586588781444831
sg5
F0.01894197599030634
sg6
F0.8571888860461583
sg7
F0.06521025981905232
sssg7
(dp63
g1
(dp64
g1
F0.2266752950373908
sg5
F0.20095800910740436
sg6
F0.21014390038609587
sg7
F0.362222795469109
ssg5
(dp65
g1
F0.241281998192526
sg5
F0.21159002685126926
sg6
F0.20141682539240482
sg7
F0.34571114956379995
ssg6
(dp66
g1
F0.18629330896532204
sg5
F0.14672317844009375
sg6
F0.47499604376101684
sg7
F0.19198746883356746
ssg7
(dp67
g1
F0.12952633554417375
sg5
F0.09836156214596271
sg6
F0.34615427387948483
sg7
F0.4259578284303787
ssssg7
(dp68
g1
(dp69
g1
(dp70
g1
F0.7752877502752172
sg5
F0.04136160115197748
sg6
F0.10535931629354701
sg7
F0.07799133227925825
ssg5
(dp71
g1
F0.500405585002283
sg5
F0.14682827801481393
sg6
F0.10278668508925998
sg7
F0.24997945189364318
ssg6
(dp72
g1
F0.5201902147599905
sg5
F0.06620761922061985
sg6
F0.22930239169071537
sg7
F0.18429977432867428
ssg7
(dp73
g1
F0.8454749188033405
sg5
F0.07665613618472517
sg6
F0.045707073892562115
sg7
F0.03216187111937218
sssg5
(dp74
g1
(dp75
g1
F0.138334067672138
sg5
F0.7186847388717105
sg6
F0.08163761570422674
sg7
F0.06134357775192474
ssg5
(dp76
g1
F0.1720031035506209
sg5
F0.5733661908580664
sg6
F0.10150442068853088
sg7
F0.15312628490278193
ssg6
(dp77
g1
F0.12270326598846144
sg5
F0.37854659860906376
sg6
F0.39699820127365865
sg7
F0.10175193412881622
ssg7
(dp78
g1
F0.07522131646810996
sg5
F0.8082315351764789
sg6
F0.03718298565740871
sg7
F0.07936416269800246
sssg6
(dp79
g1
(dp80
g1
F0.07350969005430723
sg5
F0.02164161079648736
sg6
F0.882004655502178
sg7
F0.02284404364702753
ssg5
(dp81
g1
F0.054669866337954905
sg5
F0.09046461774423857
sg6
F0.8003343593842281
sg7
F0.05453115653357843
ssg6
(dp82
g1
F0.08473880329671975
sg5
F0.05341070052097052
sg6
F0.7416492746162292
sg7
F0.12020122156608051
ssg7
(dp83
g1
F0.008172924266830413
sg5
F0.005881874162267116
sg6
F0.9719444292646311
sg7
F0.014000772306271341
sssg7
(dp84
g1
(dp85
g1
F0.2407988563591761
sg5
F0.13799857942535926
sg6
F0.14852265096408812
sg7
F0.47267991325137654
ssg5
(dp86
g1
F0.09817950116233169
sg5
F0.12125968919091984
sg6
F0.18819892099797086
sg7
F0.5923618886487777
ssg6
(dp87
g1
F0.20159905122155813
sg5
F0.16693145742036233
sg6
F0.2829353897427486
sg7
F0.3485341016153308
ssg7
(dp88
g1
F0.21657465946309518
sg5
F0.07319772460790175
sg6
F0.10907551929390259
sg7
F0.6011520966351005
ssss.